target datalayout = "e-m:e-p270:32:32-p271:32:32-p272:64:64-i64:64-i128:128-f80:128-n8:16:32:64-S128"
target triple = "x86_64-pc-linux-gnu"

%struct.WebPPicture = type { i32, i32, i32, i32, ptr, ptr, ptr, i32, i32, ptr, i32, [2 x i32], ptr, i32, [3 x i32], ptr, ptr, i32, ptr, ptr, i32, ptr, ptr, [3 x i32], ptr, ptr, [8 x i32], ptr, ptr, [2 x ptr] }

; Function Attrs: nounwind uwtable
define dso_local i32 @WebPImportColorMappedARGB(ptr noundef %0, i32 noundef %1, ptr noundef %2, i32 noundef %3, ptr noundef %4) #0 {
  %6 = alloca i32, align 4
  %7 = alloca ptr, align 8
  %8 = alloca i32, align 4
  %9 = alloca ptr, align 8
  %10 = alloca i32, align 4
  %11 = alloca ptr, align 8
  %12 = alloca i32, align 4
  %13 = alloca i32, align 4
  %14 = alloca ptr, align 8
  store ptr %0, ptr %7, align 8
  store i32 %1, ptr %8, align 4
  store ptr %2, ptr %9, align 8
  store i32 %3, ptr %10, align 4
  store ptr %4, ptr %11, align 8
  %15 = load ptr, ptr %11, align 8
  %16 = icmp eq ptr %15, null
  br i1 %16, label %35, label %17

17:                                               ; preds = %5
  %18 = load ptr, ptr %7, align 8
  %19 = icmp eq ptr %18, null
  br i1 %19, label %35, label %20

20:                                               ; preds = %17
  %21 = load i32, ptr %8, align 4
  %22 = load ptr, ptr %11, align 8
  %23 = getelementptr inbounds %struct.WebPPicture, ptr %22, i32 0, i32 2
  %24 = load i32, ptr %23, align 8
  %25 = icmp slt i32 %21, %24
  br i1 %25, label %35, label %26

26:                                               ; preds = %20
  %27 = load ptr, ptr %9, align 8
  %28 = icmp eq ptr %27, null
  br i1 %28, label %35, label %29

29:                                               ; preds = %26
  %30 = load i32, ptr %10, align 4
  %31 = icmp sgt i32 %30, 256
  br i1 %31, label %35, label %32

32:                                               ; preds = %29
  %33 = load i32, ptr %10, align 4
  %34 = icmp sle i32 %33, 0
  br i1 %34, label %35, label %36

35:                                               ; preds = %32, %29, %26, %20, %17, %5
  store i32 0, ptr %6, align 4
  br label %103

36:                                               ; preds = %32
  %37 = load ptr, ptr %11, align 8
  %38 = getelementptr inbounds %struct.WebPPicture, ptr %37, i32 0, i32 0
  store i32 1, ptr %38, align 8
  %39 = load ptr, ptr %11, align 8
  %40 = call i32 @WebPPictureAlloc(ptr noundef %39)
  %41 = icmp ne i32 %40, 0
  br i1 %41, label %43, label %42

42:                                               ; preds = %36
  store i32 0, ptr %6, align 4
  br label %103

43:                                               ; preds = %36
  %44 = load ptr, ptr %11, align 8
  %45 = getelementptr inbounds %struct.WebPPicture, ptr %44, i32 0, i32 12
  %46 = load ptr, ptr %45, align 8
  store ptr %46, ptr %14, align 8
  store i32 0, ptr %13, align 4
  br label %47

47:                                               ; preds = %99, %43
  %48 = load i32, ptr %13, align 4
  %49 = load ptr, ptr %11, align 8
  %50 = getelementptr inbounds %struct.WebPPicture, ptr %49, i32 0, i32 3
  %51 = load i32, ptr %50, align 4
  %52 = icmp slt i32 %48, %51
  br i1 %52, label %53, label %102

53:                                               ; preds = %47
  store i32 0, ptr %12, align 4
  br label %54

54:                                               ; preds = %85, %53
  %55 = load i32, ptr %12, align 4
  %56 = load ptr, ptr %11, align 8
  %57 = getelementptr inbounds %struct.WebPPicture, ptr %56, i32 0, i32 2
  %58 = load i32, ptr %57, align 8
  %59 = icmp slt i32 %55, %58
  br i1 %59, label %60, label %88

60:                                               ; preds = %54
  %61 = load ptr, ptr %7, align 8
  %62 = load i32, ptr %12, align 4
  %63 = sext i32 %62 to i64
  %64 = getelementptr inbounds i8, ptr %61, i64 %63
  %65 = load i8, ptr %64, align 1
  %66 = zext i8 %65 to i32
  %67 = load i32, ptr %10, align 4
  %68 = icmp sge i32 %66, %67
  br i1 %68, label %69, label %71

69:                                               ; preds = %60
  %70 = load ptr, ptr %11, align 8
  call void @WebPPictureFree(ptr noundef %70)
  store i32 0, ptr %6, align 4
  br label %103

71:                                               ; preds = %60
  %72 = load ptr, ptr %9, align 8
  %73 = load ptr, ptr %7, align 8
  %74 = load i32, ptr %12, align 4
  %75 = sext i32 %74 to i64
  %76 = getelementptr inbounds i8, ptr %73, i64 %75
  %77 = load i8, ptr %76, align 1
  %78 = zext i8 %77 to i64
  %79 = getelementptr inbounds i32, ptr %72, i64 %78
  %80 = load i32, ptr %79, align 4
  %81 = load ptr, ptr %14, align 8
  %82 = load i32, ptr %12, align 4
  %83 = sext i32 %82 to i64
  %84 = getelementptr inbounds i32, ptr %81, i64 %83
  store i32 %80, ptr %84, align 4
  br label %85

85:                                               ; preds = %71
  %86 = load i32, ptr %12, align 4
  %87 = add nsw i32 %86, 1
  store i32 %87, ptr %12, align 4
  br label %54, !llvm.loop !11

88:                                               ; preds = %54
  %89 = load i32, ptr %8, align 4
  %90 = load ptr, ptr %7, align 8
  %91 = sext i32 %89 to i64
  %92 = getelementptr inbounds i8, ptr %90, i64 %91
  store ptr %92, ptr %7, align 8
  %93 = load ptr, ptr %11, align 8
  %94 = getelementptr inbounds %struct.WebPPicture, ptr %93, i32 0, i32 13
  %95 = load i32, ptr %94, align 8
  %96 = load ptr, ptr %14, align 8
  %97 = sext i32 %95 to i64
  %98 = getelementptr inbounds i32, ptr %96, i64 %97
  store ptr %98, ptr %14, align 8
  br label %99

99:                                               ; preds = %88
  %100 = load i32, ptr %13, align 4
  %101 = add nsw i32 %100, 1
  store i32 %101, ptr %13, align 4
  br label %47, !llvm.loop !12

102:                                              ; preds = %47
  store i32 1, ptr %6, align 4
  br label %103

103:                                              ; preds = %102, %69, %42, %35
  %104 = load i32, ptr %6, align 4
  ret i32 %104
}