; Function Attrs: nounwind uwtable
define dso_local range(i32 0, 2) i32 @WebPImportColorMappedARGB(ptr noundef readonly %0, i32 noundef %1, ptr noundef readonly %2, i32 noundef %3, ptr noundef %4) local_unnamed_addr #1 {
  %6 = icmp eq ptr %4, null
  %7 = icmp eq ptr %0, null
  %or.cond = or i1 %7, %6
  br i1 %or.cond, label %.loopexit, label %8

8:                                                ; preds = %5
  %9 = getelementptr inbounds nuw i8, ptr %4, i64 8
  %10 = load i32, ptr %9, align 8
  %11 = icmp slt i32 %1, %10
  %12 = icmp eq ptr %2, null
  %or.cond3 = or i1 %12, %11
  %13 = add i32 %3, -257
  %14 = icmp ult i32 %13, -256
  %or.cond7 = or i1 %14, %or.cond3
  br i1 %or.cond7, label %.loopexit, label %15

15:                                               ; preds = %8
  store i32 1, ptr %4, align 8
  %16 = tail call i32 @WebPPictureAlloc(ptr noundef nonnull %4) #6
  %.not = icmp eq i32 %16, 0
  br i1 %.not, label %.loopexit, label %17

17:                                               ; preds = %15
  %18 = getelementptr inbounds nuw i8, ptr %4, i64 12
  %19 = load i32, ptr %18, align 4
  %20 = icmp sgt i32 %19, 0
  br i1 %20, label %.preheader.lr.ph, label %.loopexit

.preheader.lr.ph:                                 ; preds = %17
  %21 = sext i32 %1 to i64
  %22 = getelementptr inbounds nuw i8, ptr %4, i64 80
  %23 = load i32, ptr %9, align 8
  %24 = icmp sgt i32 %23, 0
  br i1 %24, label %.preheader.preheader, label %.loopexit

.preheader.preheader:                             ; preds = %.preheader.lr.ph
  %25 = getelementptr inbounds nuw i8, ptr %4, i64 72
  %26 = load ptr, ptr %25, align 8
  br label %.preheader

.preheader:                                       ; preds = %.preheader.preheader, %._crit_edge
  %27 = phi i32 [ %42, %._crit_edge ], [ %19, %.preheader.preheader ]
  %28 = phi i32 [ %43, %._crit_edge ], [ %23, %.preheader.preheader ]
  %.049 = phi ptr [ %47, %._crit_edge ], [ %26, %.preheader.preheader ]
  %.03648 = phi i32 [ %48, %._crit_edge ], [ 0, %.preheader.preheader ]
  %.03947 = phi ptr [ %44, %._crit_edge ], [ %0, %.preheader.preheader ]
  %29 = icmp sgt i32 %28, 0
  br i1 %29, label %.lr.ph, label %._crit_edge

.lr.ph:                                           ; preds = %.preheader, %34
  %indvars.iv = phi i64 [ %indvars.iv.next, %34 ], [ 0, %.preheader ]
  %30 = getelementptr inbounds nuw i8, ptr %.03947, i64 %indvars.iv
  %31 = load i8, ptr %30, align 1
  %32 = zext i8 %31 to i32
  %.not45 = icmp sgt i32 %3, %32
  br i1 %.not45, label %34, label %33

33:                                               ; preds = %.lr.ph
  tail call void @WebPPictureFree(ptr noundef nonnull %4) #6
  br label %.loopexit

34:                                               ; preds = %.lr.ph
  %35 = zext i8 %31 to i64
  %36 = getelementptr inbounds nuw i32, ptr %2, i64 %35
  %37 = load i32, ptr %36, align 4
  %38 = getelementptr inbounds nuw i32, ptr %.049, i64 %indvars.iv
  store i32 %37, ptr %38, align 4
  %indvars.iv.next = add nuw nsw i64 %indvars.iv, 1
  %39 = load i32, ptr %9, align 8
  %40 = sext i32 %39 to i64
  %41 = icmp slt i64 %indvars.iv.next, %40
  br i1 %41, label %.lr.ph, label %._crit_edge.loopexit, !llvm.loop !12

._crit_edge.loopexit:                             ; preds = %34
  %.pre = load i32, ptr %18, align 4
  br label %._crit_edge

._crit_edge:                                      ; preds = %._crit_edge.loopexit, %.preheader
  %42 = phi i32 [ %.pre, %._crit_edge.loopexit ], [ %27, %.preheader ]
  %43 = phi i32 [ %39, %._crit_edge.loopexit ], [ %28, %.preheader ]
  %44 = getelementptr inbounds i8, ptr %.03947, i64 %21
  %45 = load i32, ptr %22, align 8
  %46 = sext i32 %45 to i64
  %47 = getelementptr inbounds i32, ptr %.049, i64 %46
  %48 = add nuw nsw i32 %.03648, 1
  %49 = icmp slt i32 %48, %42
  br i1 %49, label %.preheader, label %.loopexit, !llvm.loop !13

.loopexit:                                        ; preds = %._crit_edge, %.preheader.lr.ph, %17, %15, %5, %8, %33
  %.038 = phi i32 [ 0, %33 ], [ 0, %8 ], [ 0, %5 ], [ 0, %15 ], [ 1, %17 ], [ 1, %.preheader.lr.ph ], [ 1, %._crit_edge ]
  ret i32 %.038
}